target datalayout = "e-m:e-p270:32:32-p271:32:32-p272:64:64-i64:64-i128:128-f80:128-n8:16:32:64-S128"
target triple = "x86_64-pc-linux-gnu"

%struct.ML_KEM_VINFO = type { ptr, i64, i64, i64, i64, i64, i64, i64, i32, i32, i32, i32, i32, i32 }
%struct.ossl_ml_kem_key_st = type { ptr, ptr, ptr, ptr, ptr, ptr, ptr, ptr, ptr, ptr, ptr, ptr, ptr, i32, i32, [64 x i8], ptr }
%struct.ossl_ml_kem_scalar_st = type { [256 x i16] }

@.str = private unnamed_addr constant [34 x i8] c"../openssl/crypto/ml_kem/ml_kem.c\00", align 1

; Function Attrs: nounwind uwtable
define internal i32 @add_storage(ptr noundef %0, i32 noundef %1, ptr noundef %2) #0 {
  %4 = alloca i32, align 4
  %5 = alloca ptr, align 8
  %6 = alloca i32, align 4
  %7 = alloca ptr, align 8
  %8 = alloca i32, align 4
  %9 = alloca i32, align 4
  store ptr %0, ptr %5, align 8, !tbaa !40
  store i32 %1, ptr %6, align 4, !tbaa !23
  store ptr %2, ptr %7, align 8, !tbaa !3
  call void @llvm.lifetime.start.p0(i64 4, ptr %8) #8
  %10 = load ptr, ptr %7, align 8, !tbaa !3
  %11 = getelementptr inbounds nuw %struct.ossl_ml_kem_key_st, ptr %10, i32 0, i32 0
  %12 = load ptr, ptr %11, align 8, !tbaa !16
  %13 = getelementptr inbounds nuw %struct.ML_KEM_VINFO, ptr %12, i32 0, i32 10
  %14 = load i32, ptr %13, align 8, !tbaa !41
  store i32 %14, ptr %8, align 4, !tbaa !23
  %15 = load ptr, ptr %5, align 8, !tbaa !40
  %16 = icmp eq ptr %15, null
  br i1 %16, label %17, label %18

17:                                               ; preds = %3
  store i32 0, ptr %4, align 4
  store i32 1, ptr %9, align 4
  br label %64

18:                                               ; preds = %3
  %19 = load ptr, ptr %7, align 8, !tbaa !3
  %20 = getelementptr inbounds nuw %struct.ossl_ml_kem_key_st, ptr %19, i32 0, i32 15
  %21 = getelementptr inbounds [64 x i8], ptr %20, i64 0, i64 0
  call void @llvm.memset.p0.i64(ptr align 8 %21, i8 0, i64 64, i1 false)
  %22 = load ptr, ptr %7, align 8, !tbaa !3
  %23 = getelementptr inbounds nuw %struct.ossl_ml_kem_key_st, ptr %22, i32 0, i32 15
  %24 = getelementptr inbounds [64 x i8], ptr %23, i64 0, i64 0
  %25 = load ptr, ptr %7, align 8, !tbaa !3
  %26 = getelementptr inbounds nuw %struct.ossl_ml_kem_key_st, ptr %25, i32 0, i32 6
  store ptr %24, ptr %26, align 8, !tbaa !36
  %27 = load ptr, ptr %7, align 8, !tbaa !3
  %28 = getelementptr inbounds nuw %struct.ossl_ml_kem_key_st, ptr %27, i32 0, i32 15
  %29 = getelementptr inbounds [64 x i8], ptr %28, i64 0, i64 0
  %30 = getelementptr inbounds i8, ptr %29, i64 32
  %31 = load ptr, ptr %7, align 8, !tbaa !3
  %32 = getelementptr inbounds nuw %struct.ossl_ml_kem_key_st, ptr %31, i32 0, i32 7
  store ptr %30, ptr %32, align 8, !tbaa !35
  %33 = load ptr, ptr %7, align 8, !tbaa !3
  %34 = getelementptr inbounds nuw %struct.ossl_ml_kem_key_st, ptr %33, i32 0, i32 11
  store ptr null, ptr %34, align 8, !tbaa !21
  %35 = load ptr, ptr %7, align 8, !tbaa !3
  %36 = getelementptr inbounds nuw %struct.ossl_ml_kem_key_st, ptr %35, i32 0, i32 12
  store ptr null, ptr %36, align 8, !tbaa !22
  %37 = load ptr, ptr %5, align 8, !tbaa !40
  %38 = load ptr, ptr %7, align 8, !tbaa !3
  %39 = getelementptr inbounds nuw %struct.ossl_ml_kem_key_st, ptr %38, i32 0, i32 8
  store ptr %37, ptr %39, align 8, !tbaa !8
  %40 = load i32, ptr %8, align 4, !tbaa !23
  %41 = sext i32 %40 to i64
  %42 = getelementptr inbounds %struct.ossl_ml_kem_scalar_st, ptr %37, i64 %41
  %43 = load ptr, ptr %7, align 8, !tbaa !3
  %44 = getelementptr inbounds nuw %struct.ossl_ml_kem_key_st, ptr %43, i32 0, i32 9
  store ptr %42, ptr %44, align 8, !tbaa !20
  %45 = load i32, ptr %6, align 4, !tbaa !23
  %46 = icmp ne i32 %45, 0
  br i1 %46, label %47, label %63

47:                                               ; preds = %18
  %48 = load i32, ptr %8, align 4, !tbaa !23
  %49 = load ptr, ptr %7, align 8, !tbaa !3
  %50 = getelementptr inbounds nuw %struct.ossl_ml_kem_key_st, ptr %49, i32 0, i32 9
  %51 = load ptr, ptr %50, align 8, !tbaa !20
  %52 = load i32, ptr %8, align 4, !tbaa !23
  %53 = load i32, ptr %8, align 4, !tbaa !23
  %54 = mul nsw i32 %52, %53
  %55 = sext i32 %54 to i64
  %56 = getelementptr inbounds %struct.ossl_ml_kem_scalar_st, ptr %51, i64 %55
  %57 = load ptr, ptr %7, align 8, !tbaa !3
  %58 = getelementptr inbounds nuw %struct.ossl_ml_kem_key_st, ptr %57, i32 0, i32 10
  store ptr %56, ptr %58, align 8, !tbaa !15
  %59 = sext i32 %48 to i64
  %60 = getelementptr inbounds %struct.ossl_ml_kem_scalar_st, ptr %56, i64 %59
  %61 = load ptr, ptr %7, align 8, !tbaa !3
  %62 = getelementptr inbounds nuw %struct.ossl_ml_kem_key_st, ptr %61, i32 0, i32 11
  store ptr %60, ptr %62, align 8, !tbaa !21
  br label %63

63:                                               ; preds = %47, %18
  store i32 1, ptr %4, align 4
  store i32 1, ptr %9, align 4
  br label %64

64:                                               ; preds = %63, %17
  call void @llvm.lifetime.end.p0(i64 4, ptr %8) #8
  %65 = load i32, ptr %4, align 4
  ret i32 %65
}

; Function Attrs: nounwind uwtable
define ptr @ossl_ml_kem_key_dup(ptr noundef %0, i32 noundef %1) #0 {
  %3 = alloca ptr, align 8
  %4 = alloca ptr, align 8
  %5 = alloca i32, align 4
  %6 = alloca i32, align 4
  %7 = alloca ptr, align 8
  %8 = alloca i32, align 4
  store ptr %0, ptr %4, align 8, !tbaa !3
  store i32 %1, ptr %5, align 4, !tbaa !23
  call void @llvm.lifetime.start.p0(i64 4, ptr %6) #8
  store i32 0, ptr %6, align 4, !tbaa !23
  call void @llvm.lifetime.start.p0(i64 8, ptr %7) #8
  %9 = load ptr, ptr %4, align 8, !tbaa !3
  %10 = getelementptr inbounds nuw %struct.ossl_ml_kem_key_st, ptr %9, i32 0, i32 16
  %11 = load ptr, ptr %10, align 8, !tbaa !34
  %12 = icmp ne ptr %11, null
  br i1 %12, label %23, label %13

13:                                               ; preds = %2
  %14 = load ptr, ptr %4, align 8, !tbaa !3
  %15 = getelementptr inbounds nuw %struct.ossl_ml_kem_key_st, ptr %14, i32 0, i32 10
  %16 = load ptr, ptr %15, align 8, !tbaa !15
  %17 = icmp eq ptr %16, null
  br i1 %17, label %18, label %24

18:                                               ; preds = %13
  %19 = load ptr, ptr %4, align 8, !tbaa !3
  %20 = getelementptr inbounds nuw %struct.ossl_ml_kem_key_st, ptr %19, i32 0, i32 12
  %21 = load ptr, ptr %20, align 8, !tbaa !22
  %22 = icmp ne ptr %21, null
  br i1 %22, label %23, label %24

23:                                               ; preds = %18, %2
  store ptr null, ptr %3, align 8
  store i32 1, ptr %8, align 4
  br label %135

24:                                               ; preds = %18, %13
  %25 = load ptr, ptr %4, align 8, !tbaa !3
  %26 = icmp eq ptr %25, null
  br i1 %26, label %31, label %27

27:                                               ; preds = %24
  %28 = load ptr, ptr %4, align 8, !tbaa !3
  %29 = call noalias ptr @CRYPTO_memdup(ptr noundef %28, i64 noundef 184, ptr noundef @.str, i32 noundef 1629)
  store ptr %29, ptr %7, align 8, !tbaa !3
  %30 = icmp eq ptr %29, null
  br i1 %30, label %31, label %32

31:                                               ; preds = %27, %24
  store ptr null, ptr %3, align 8
  store i32 1, ptr %8, align 4
  br label %135

32:                                               ; preds = %27
  %33 = load ptr, ptr %7, align 8, !tbaa !3
  %34 = getelementptr inbounds nuw %struct.ossl_ml_kem_key_st, ptr %33, i32 0, i32 7
  store ptr null, ptr %34, align 8, !tbaa !35
  %35 = load ptr, ptr %7, align 8, !tbaa !3
  %36 = getelementptr inbounds nuw %struct.ossl_ml_kem_key_st, ptr %35, i32 0, i32 6
  store ptr null, ptr %36, align 8, !tbaa !36
  %37 = load ptr, ptr %7, align 8, !tbaa !3
  %38 = getelementptr inbounds nuw %struct.ossl_ml_kem_key_st, ptr %37, i32 0, i32 11
  store ptr null, ptr %38, align 8, !tbaa !21
  %39 = load ptr, ptr %7, align 8, !tbaa !3
  %40 = getelementptr inbounds nuw %struct.ossl_ml_kem_key_st, ptr %39, i32 0, i32 12
  store ptr null, ptr %40, align 8, !tbaa !22
  %41 = load ptr, ptr %7, align 8, !tbaa !3
  %42 = getelementptr inbounds nuw %struct.ossl_ml_kem_key_st, ptr %41, i32 0, i32 8
  store ptr null, ptr %42, align 8, !tbaa !8
  %43 = load ptr, ptr %7, align 8, !tbaa !3
  %44 = getelementptr inbounds nuw %struct.ossl_ml_kem_key_st, ptr %43, i32 0, i32 9
  store ptr null, ptr %44, align 8, !tbaa !20
  %45 = load ptr, ptr %7, align 8, !tbaa !3
  %46 = getelementptr inbounds nuw %struct.ossl_ml_kem_key_st, ptr %45, i32 0, i32 10
  store ptr null, ptr %46, align 8, !tbaa !15
  %47 = load ptr, ptr %4, align 8, !tbaa !3
  %48 = getelementptr inbounds nuw %struct.ossl_ml_kem_key_st, ptr %47, i32 0, i32 8
  %49 = load ptr, ptr %48, align 8, !tbaa !8
  %50 = icmp ne ptr %49, null
  br i1 %50, label %52, label %51

51:                                               ; preds = %32
  store i32 0, ptr %5, align 4, !tbaa !23
  br label %61

52:                                               ; preds = %32
  %53 = load ptr, ptr %4, align 8, !tbaa !3
  %54 = getelementptr inbounds nuw %struct.ossl_ml_kem_key_st, ptr %53, i32 0, i32 10
  %55 = load ptr, ptr %54, align 8, !tbaa !15
  %56 = icmp ne ptr %55, null
  br i1 %56, label %60, label %57

57:                                               ; preds = %52
  %58 = load i32, ptr %5, align 4, !tbaa !23
  %59 = and i32 %58, -2
  store i32 %59, ptr %5, align 4, !tbaa !23
  br label %60

60:                                               ; preds = %57, %52
  br label %61

61:                                               ; preds = %60, %51
  %62 = load i32, ptr %5, align 4, !tbaa !23
  %63 = and i32 %62, 3
  switch i32 %63, label %112 [
    i32 0, label %64
    i32 2, label %65
    i32 1, label %88
  ]

64:                                               ; preds = %61
  store i32 1, ptr %6, align 4, !tbaa !23
  br label %112

65:                                               ; preds = %61
  %66 = load ptr, ptr %4, align 8, !tbaa !3
  %67 = getelementptr inbounds nuw %struct.ossl_ml_kem_key_st, ptr %66, i32 0, i32 8
  %68 = load ptr, ptr %67, align 8, !tbaa !8
  %69 = load ptr, ptr %4, align 8, !tbaa !3
  %70 = getelementptr inbounds nuw %struct.ossl_ml_kem_key_st, ptr %69, i32 0, i32 0
  %71 = load ptr, ptr %70, align 8, !tbaa !16
  %72 = getelementptr inbounds nuw %struct.ML_KEM_VINFO, ptr %71, i32 0, i32 4
  %73 = load i64, ptr %72, align 8, !tbaa !38
  %74 = call noalias ptr @CRYPTO_memdup(ptr noundef %68, i64 noundef %73, ptr noundef @.str, i32 noundef 1645)
  %75 = load ptr, ptr %7, align 8, !tbaa !3
  %76 = call i32 @add_storage(ptr noundef %74, i32 noundef 0, ptr noundef %75)
  store i32 %76, ptr %6, align 4, !tbaa !23
  %77 = load ptr, ptr %7, align 8, !tbaa !3
  %78 = getelementptr inbounds nuw %struct.ossl_ml_kem_key_st, ptr %77, i32 0, i32 15
  %79 = getelementptr inbounds [64 x i8], ptr %78, i64 0, i64 0
  %80 = load ptr, ptr %7, align 8, !tbaa !3
  %81 = getelementptr inbounds nuw %struct.ossl_ml_kem_key_st, ptr %80, i32 0, i32 6
  store ptr %79, ptr %81, align 8, !tbaa !36
  %82 = load ptr, ptr %7, align 8, !tbaa !3
  %83 = getelementptr inbounds nuw %struct.ossl_ml_kem_key_st, ptr %82, i32 0, i32 6
  %84 = load ptr, ptr %83, align 8, !tbaa !36
  %85 = getelementptr inbounds i8, ptr %84, i64 32
  %86 = load ptr, ptr %7, align 8, !tbaa !3
  %87 = getelementptr inbounds nuw %struct.ossl_ml_kem_key_st, ptr %86, i32 0, i32 7
  store ptr %85, ptr %87, align 8, !tbaa !35
  br label %112

88:                                               ; preds = %61
  %89 = load ptr, ptr %4, align 8, !tbaa !3
  %90 = getelementptr inbounds nuw %struct.ossl_ml_kem_key_st, ptr %89, i32 0, i32 8
  %91 = load ptr, ptr %90, align 8, !tbaa !8
  %92 = load ptr, ptr %4, align 8, !tbaa !3
  %93 = getelementptr inbounds nuw %struct.ossl_ml_kem_key_st, ptr %92, i32 0, i32 0
  %94 = load ptr, ptr %93, align 8, !tbaa !16
  %95 = getelementptr inbounds nuw %struct.ML_KEM_VINFO, ptr %94, i32 0, i32 2
  %96 = load i64, ptr %95, align 8, !tbaa !39
  %97 = call noalias ptr @CRYPTO_memdup(ptr noundef %91, i64 noundef %96, ptr noundef @.str, i32 noundef 1650)
  %98 = load ptr, ptr %7, align 8, !tbaa !3
  %99 = call i32 @add_storage(ptr noundef %97, i32 noundef 1, ptr noundef %98)
  store i32 %99, ptr %6, align 4, !tbaa !23
  %100 = load ptr, ptr %4, align 8, !tbaa !3
  %101 = getelementptr inbounds nuw %struct.ossl_ml_kem_key_st, ptr %100, i32 0, i32 12
  %102 = load ptr, ptr %101, align 8, !tbaa !22
  %103 = icmp ne ptr %102, null
  br i1 %103, label %104, label %111

104:                                              ; preds = %88
  %105 = load ptr, ptr %7, align 8, !tbaa !3
  %106 = getelementptr inbounds nuw %struct.ossl_ml_kem_key_st, ptr %105, i32 0, i32 11
  %107 = load ptr, ptr %106, align 8, !tbaa !21
  %108 = getelementptr inbounds i8, ptr %107, i64 32
  %109 = load ptr, ptr %7, align 8, !tbaa !3
  %110 = getelementptr inbounds nuw %struct.ossl_ml_kem_key_st, ptr %109, i32 0, i32 12
  store ptr %108, ptr %110, align 8, !tbaa !22
  br label %111

111:                                              ; preds = %104, %88
  br label %112

112:                                              ; preds = %61, %111, %65, %64
  %113 = load i32, ptr %6, align 4, !tbaa !23
  %114 = icmp ne i32 %113, 0
  br i1 %114, label %117, label %115

115:                                              ; preds = %112
  %116 = load ptr, ptr %7, align 8, !tbaa !3
  call void @CRYPTO_free(ptr noundef %116, ptr noundef @.str, i32 noundef 1658)
  store ptr null, ptr %3, align 8
  store i32 1, ptr %8, align 4
  br label %135

117:                                              ; preds = %112
  %118 = load ptr, ptr %7, align 8, !tbaa !3
  %119 = getelementptr inbounds nuw %struct.ossl_ml_kem_key_st, ptr %118, i32 0, i32 2
  %120 = load ptr, ptr %119, align 8, !tbaa !30
  %121 = call i32 @EVP_MD_up_ref(ptr noundef %120)
  %122 = load ptr, ptr %7, align 8, !tbaa !3
  %123 = getelementptr inbounds nuw %struct.ossl_ml_kem_key_st, ptr %122, i32 0, i32 3
  %124 = load ptr, ptr %123, align 8, !tbaa !31
  %125 = call i32 @EVP_MD_up_ref(ptr noundef %124)
  %126 = load ptr, ptr %7, align 8, !tbaa !3
  %127 = getelementptr inbounds nuw %struct.ossl_ml_kem_key_st, ptr %126, i32 0, i32 4
  %128 = load ptr, ptr %127, align 8, !tbaa !32
  %129 = call i32 @EVP_MD_up_ref(ptr noundef %128)
  %130 = load ptr, ptr %7, align 8, !tbaa !3
  %131 = getelementptr inbounds nuw %struct.ossl_ml_kem_key_st, ptr %130, i32 0, i32 5
  %132 = load ptr, ptr %131, align 8, !tbaa !33
  %133 = call i32 @EVP_MD_up_ref(ptr noundef %132)
  %134 = load ptr, ptr %7, align 8, !tbaa !3
  store ptr %134, ptr %3, align 8
  store i32 1, ptr %8, align 4
  br label %135

135:                                              ; preds = %117, %115, %31, %23
  call void @llvm.lifetime.end.p0(i64 8, ptr %7) #8
  call void @llvm.lifetime.end.p0(i64 4, ptr %6) #8
  %136 = load ptr, ptr %3, align 8
  ret ptr %136
}