; Function Attrs: nounwind uwtable
define ptr @ossl_ml_kem_key_dup(ptr noundef %0, i32 noundef %1) local_unnamed_addr #0 {
  %3 = getelementptr inbounds nuw i8, ptr %0, i64 176
  %4 = load ptr, ptr %3, align 8, !tbaa !25
  %.not = icmp eq ptr %4, null
  br i1 %.not, label %5, label %80

5:                                                ; preds = %2
  %6 = getelementptr inbounds nuw i8, ptr %0, i64 80
  %7 = load ptr, ptr %6, align 8, !tbaa !13
  %8 = icmp eq ptr %7, null
  br i1 %8, label %9, label %12

9:                                                ; preds = %5
  %10 = getelementptr inbounds nuw i8, ptr %0, i64 96
  %11 = load ptr, ptr %10, align 8, !tbaa !26
  %.not40.not = icmp eq ptr %11, null
  br i1 %.not40.not, label %12, label %80

12:                                               ; preds = %5, %9
  %13 = tail call noalias ptr @CRYPTO_memdup(ptr noundef nonnull %0, i64 noundef 184, ptr noundef nonnull @.str, i32 noundef 1629) #13
  %14 = icmp eq ptr %13, null
  br i1 %14, label %80, label %15

15:                                               ; preds = %12
  %16 = getelementptr inbounds nuw i8, ptr %13, i64 56
  %17 = getelementptr inbounds nuw i8, ptr %13, i64 48
  %18 = getelementptr inbounds nuw i8, ptr %13, i64 88
  %19 = getelementptr inbounds nuw i8, ptr %13, i64 96
  %20 = getelementptr inbounds nuw i8, ptr %13, i64 64
  %21 = getelementptr inbounds nuw i8, ptr %13, i64 72
  %22 = getelementptr inbounds nuw i8, ptr %13, i64 80
  %23 = getelementptr inbounds nuw i8, ptr %0, i64 64
  tail call void @llvm.memset.p0.i64(ptr noundef nonnull align 8 dereferenceable(56) %17, i8 0, i64 56, i1 false)
  %24 = load ptr, ptr %23, align 8, !tbaa !3
  %.not41 = icmp eq ptr %24, null
  br i1 %.not41, label %.thread51, label %25

25:                                               ; preds = %15
  %26 = load ptr, ptr %6, align 8, !tbaa !13
  %.not42 = icmp eq ptr %26, null
  %.v = select i1 %.not42, i32 2, i32 3
  %27 = and i32 %.v, %1
  switch i32 %27, label %default.unreachable54 [
    i32 0, label %.thread51
    i32 2, label %28
    i32 1, label %43
    i32 3, label %.thread48
  ]

28:                                               ; preds = %25
  %29 = load ptr, ptr %0, align 8, !tbaa !14
  %30 = getelementptr inbounds nuw i8, ptr %29, i64 32
  %31 = load i64, ptr %30, align 8, !tbaa !28
  %32 = tail call noalias ptr @CRYPTO_memdup(ptr noundef nonnull %24, i64 noundef %31, ptr noundef nonnull @.str, i32 noundef 1645) #13
  %33 = icmp eq ptr %32, null
  br i1 %33, label %add_storage.exit, label %34

34:                                               ; preds = %28
  %35 = load ptr, ptr %13, align 8, !tbaa !14
  %36 = getelementptr inbounds nuw i8, ptr %35, i64 72
  %37 = load i32, ptr %36, align 8, !tbaa !29
  %38 = getelementptr inbounds nuw i8, ptr %13, i64 112
  tail call void @llvm.memset.p0.i64(ptr noundef nonnull align 8 dereferenceable(64) %38, i8 0, i64 64, i1 false)
  tail call void @llvm.memset.p0.i64(ptr noundef nonnull align 8 dereferenceable(16) %18, i8 0, i64 16, i1 false)
  store ptr %32, ptr %20, align 8, !tbaa !3
  %39 = sext i32 %37 to i64
  %40 = getelementptr inbounds %struct.ossl_ml_kem_scalar_st, ptr %32, i64 %39
  store ptr %40, ptr %21, align 8, !tbaa !30
  br label %add_storage.exit

add_storage.exit:                                 ; preds = %28, %34
  %.0.i = phi i32 [ 0, %28 ], [ 1, %34 ]
  %41 = getelementptr inbounds nuw i8, ptr %13, i64 112
  store ptr %41, ptr %17, align 8, !tbaa !31
  %42 = getelementptr inbounds nuw i8, ptr %13, i64 144
  store ptr %42, ptr %16, align 8, !tbaa !32
  br label %67

43:                                               ; preds = %25
  %44 = load ptr, ptr %0, align 8, !tbaa !14
  %45 = getelementptr inbounds nuw i8, ptr %44, i64 16
  %46 = load i64, ptr %45, align 8, !tbaa !33
  %47 = tail call noalias ptr @CRYPTO_memdup(ptr noundef nonnull %24, i64 noundef %46, ptr noundef nonnull @.str, i32 noundef 1650) #13
  %48 = icmp eq ptr %47, null
  br i1 %48, label %add_storage.exit46, label %49

49:                                               ; preds = %43
  %50 = load ptr, ptr %13, align 8, !tbaa !14
  %51 = getelementptr inbounds nuw i8, ptr %50, i64 72
  %52 = load i32, ptr %51, align 8, !tbaa !29
  %53 = getelementptr inbounds nuw i8, ptr %13, i64 112
  tail call void @llvm.memset.p0.i64(ptr noundef nonnull align 8 dereferenceable(64) %53, i8 0, i64 64, i1 false)
  store ptr %53, ptr %17, align 8, !tbaa !31
  %54 = getelementptr inbounds nuw i8, ptr %13, i64 144
  store ptr %54, ptr %16, align 8, !tbaa !32
  %55 = getelementptr inbounds nuw i8, ptr %13, i64 96
  store i64 0, ptr %55, align 8
  store ptr %47, ptr %20, align 8, !tbaa !3
  %56 = sext i32 %52 to i64
  %57 = getelementptr inbounds %struct.ossl_ml_kem_scalar_st, ptr %47, i64 %56
  store ptr %57, ptr %21, align 8, !tbaa !30
  %58 = mul nsw i32 %52, %52
  %59 = zext nneg i32 %58 to i64
  %60 = getelementptr inbounds nuw %struct.ossl_ml_kem_scalar_st, ptr %57, i64 %59
  store ptr %60, ptr %22, align 8, !tbaa !13
  %61 = getelementptr inbounds %struct.ossl_ml_kem_scalar_st, ptr %60, i64 %56
  store ptr %61, ptr %18, align 8, !tbaa !34
  br label %add_storage.exit46

add_storage.exit46:                               ; preds = %43, %49
  %.0.i45 = phi i32 [ 0, %43 ], [ 1, %49 ]
  %62 = getelementptr inbounds nuw i8, ptr %0, i64 96
  %63 = load ptr, ptr %62, align 8, !tbaa !26
  %.not43 = icmp eq ptr %63, null
  br i1 %.not43, label %67, label %64

64:                                               ; preds = %add_storage.exit46
  %65 = load ptr, ptr %18, align 8, !tbaa !34
  %66 = getelementptr inbounds nuw i8, ptr %65, i64 32
  store ptr %66, ptr %19, align 8, !tbaa !26
  br label %67

default.unreachable54:                            ; preds = %25
  unreachable

67:                                               ; preds = %add_storage.exit46, %64, %add_storage.exit
  %.036 = phi i32 [ %.0.i45, %64 ], [ %.0.i45, %add_storage.exit46 ], [ %.0.i, %add_storage.exit ]
  %.not44 = icmp eq i32 %.036, 0
  br i1 %.not44, label %.thread48, label %.thread51

.thread48:                                        ; preds = %25, %67
  tail call void @CRYPTO_free(ptr noundef nonnull %13, ptr noundef nonnull @.str, i32 noundef 1658) #13
  br label %80

.thread51:                                        ; preds = %15, %25, %67
  %68 = getelementptr inbounds nuw i8, ptr %13, i64 16
  %69 = load ptr, ptr %68, align 8, !tbaa !21
  %70 = tail call i32 @EVP_MD_up_ref(ptr noundef %69) #13
  %71 = getelementptr inbounds nuw i8, ptr %13, i64 24
  %72 = load ptr, ptr %71, align 8, !tbaa !22
  %73 = tail call i32 @EVP_MD_up_ref(ptr noundef %72) #13
  %74 = getelementptr inbounds nuw i8, ptr %13, i64 32
  %75 = load ptr, ptr %74, align 8, !tbaa !23
  %76 = tail call i32 @EVP_MD_up_ref(ptr noundef %75) #13
  %77 = getelementptr inbounds nuw i8, ptr %13, i64 40
  %78 = load ptr, ptr %77, align 8, !tbaa !24
  %79 = tail call i32 @EVP_MD_up_ref(ptr noundef %78) #13
  br label %80

80:                                               ; preds = %12, %2, %9, %.thread51, %.thread48
  %.0 = phi ptr [ %13, %.thread51 ], [ null, %.thread48 ], [ null, %9 ], [ null, %2 ], [ null, %12 ]
  ret ptr %.0
}